target datalayout = "e-m:e-p270:32:32-p271:32:32-p272:64:64-i64:64-i128:128-f80:128-n8:16:32:64-S128"
target triple = "x86_64-pc-linux-gnu"

%struct.MPVEncContext = type { %struct.MpegEncContext, %struct.PutBitContext, i32, i32, ptr, i32, i32, i32, i32, i32, i32, i32, i32, ptr, ptr, %struct.FDCTDSPContext, %struct.MpegvideoEncDSPContext, %struct.PixblockDSPContext, %struct.MotionEstContext, i32, i32, ptr, ptr, ptr, ptr, ptr, ptr, [2 x [2 x [2 x ptr]]], [2 x ptr], [2 x [2 x ptr]], ptr, ptr, ptr, ptr, [3 x i64], i32, i32, i32, i32, i32, ptr, ptr, ptr, ptr, ptr, ptr, ptr, [12 x i32], ptr, ptr, ptr, ptr, ptr, ptr, ptr, ptr, [2 x i32], ptr, i32, i32, i32, i32, i32, i32, i32, i32, i32, i32, ptr, ptr, i32, i32, %struct.PutBitContext, %struct.PutBitContext, i32, i32, i32, i32, ptr, ptr, ptr, [2 x ptr], [2 x ptr], [2 x ptr], [2 x ptr], ptr, i32 }
%struct.MpegEncContext = type { ptr, i32, i32, i32, [12 x i32], i32, %struct.ScanTable, %struct.ScanTable, [64 x i8], [64 x i8], ptr, ptr, i32, i32, i32, i32, i32, i32, i32, i32, i32, i32, i32, i32, i32, i32, i32, i32, i32, i32, i32, i32, i64, i64, ptr, %struct.BufferPoolContext, i32, i32, %union.anon.0, i32, %struct.MPVWorkPicture, %struct.MPVWorkPicture, %struct.MPVWorkPicture, i32, [3 x i32], ptr, [3 x ptr], ptr, ptr, ptr, ptr, ptr, ptr, [3 x ptr], i32, ptr, ptr, ptr, ptr, %struct.ScratchpadContext, i32, i32, i32, i32, i32, i32, %struct.BlockDSPContext, %struct.H264ChromaContext, %struct.HpelDSPContext, %struct.IDCTDSPContext, %struct.QpelDSPContext, %struct.VideoDSPContext, %struct.H263DSPContext, ptr, [2 x [2 x ptr]], i32, i32, [2 x [4 x [2 x i32]]], [2 x [2 x i32]], [2 x [2 x [2 x i32]]], [2 x [64 x i16]], i32, i32, i32, i32, i32, [6 x i32], [6 x i32], [3 x ptr], ptr, [64 x i16], [64 x i16], [64 x i16], [64 x i16], i32, i32, %struct.GetBitContext, i32, i32, i32, i32, i32, i32, i32, i32, i32, i32, i32, i32, i32, i32, i32, i64, i64, i16, i16, i16, i16, i32, i32, i32, i32, i32, i32, i32, i32, i32, [3 x i32], i32, i32, i32, i32, i32, i32, %struct.GetBitContext, i32, [2 x [2 x i32]], i32, i32, i32, i32, i32, i32, i32, i32, i32, i32, i32, i32, i32, i32, [2 x i32], i32, i32, ptr, ptr, ptr, ptr, ptr, i32, i32, %struct.ERContext }
%struct.ScanTable = type { ptr, [64 x i8], [64 x i8] }
%struct.BufferPoolContext = type { ptr, ptr, ptr, ptr, ptr, i32, i32, i32 }
%union.anon.0 = type { [32 x ptr] }
%struct.MPVWorkPicture = type { [3 x ptr], [3 x i64], ptr, ptr, [2 x ptr], ptr, ptr, [2 x ptr], i32 }
%struct.ScratchpadContext = type { ptr, ptr, %union.anon.1, i32 }
%union.anon.1 = type { ptr }
%struct.BlockDSPContext = type { ptr, ptr, [2 x ptr] }
%struct.H264ChromaContext = type { [4 x ptr], [4 x ptr] }
%struct.HpelDSPContext = type { [4 x [4 x ptr]], [4 x [4 x ptr]], [4 x [4 x ptr]], [4 x ptr] }
%struct.IDCTDSPContext = type { ptr, ptr, ptr, ptr, ptr, ptr, [64 x i8], i32, i32 }
%struct.QpelDSPContext = type { [2 x [16 x ptr]], [2 x [16 x ptr]], [2 x [16 x ptr]] }
%struct.VideoDSPContext = type { ptr, ptr }
%struct.H263DSPContext = type { ptr, ptr }
%struct.GetBitContext = type { ptr, ptr, i32, i32, i32 }
%struct.ERContext = type { ptr, ptr, i32, ptr, i32, i32, i32, i64, i64, i32, i32, ptr, ptr, [3 x ptr], ptr, ptr, [2 x [4 x [2 x i32]]], %struct.ERPicture, %struct.ERPicture, %struct.ERPicture, [2 x ptr], [2 x ptr], i16, i16, i32, i32, ptr, ptr }
%struct.ERPicture = type { ptr, ptr, ptr, [2 x ptr], [2 x ptr], ptr, i32 }
%struct.FDCTDSPContext = type { ptr, ptr }
%struct.MpegvideoEncDSPContext = type { ptr, ptr, ptr, ptr, [4 x ptr], ptr }
%struct.PixblockDSPContext = type { ptr, ptr, ptr, ptr }
%struct.MotionEstContext = type { ptr, i32, i32, [4 x [2 x i32]], [4 x [2 x i32]], ptr, ptr, i32, i32, i32, i32, i32, i32, i32, i32, i32, i32, i32, i32, i32, i32, i32, i32, [4 x [4 x ptr]], [4 x [4 x ptr]], i32, i32, i64, i64, i32, [6 x ptr], [6 x ptr], [6 x ptr], [6 x ptr], [2 x [4 x ptr]], ptr, ptr, ptr, ptr, ptr, ptr, ptr, ptr, [64 x i32], [64 x i32] }
%struct.PutBitContext = type { i32, i32, ptr, ptr, ptr }
%struct.AVCodecContext = type { ptr, i32, i32, ptr, i32, i32, ptr, ptr, ptr, i64, i32, i32, ptr, i32, %struct.AVRational, %struct.AVRational, %struct.AVRational, i32, i32, i32, i32, i32, %struct.AVRational, i32, i32, i32, i32, i32, i32, i32, i32, i32, i32, i32, ptr, ptr, i32, float, float, float, float, float, float, float, float, float, i32, i32, i32, i32, i32, i32, i32, i32, i32, i32, i32, i32, ptr, ptr, ptr, i32, i32, i32, i32, i32, i32, i32, i32, i32, i32, %struct.AVChannelLayout, i32, i32, i32, i32, i32, i32, i32, i32, ptr, i32, i32, i32, float, float, i32, i32, i32, i32, i32, ptr, i64, i64, float, float, i32, i32, ptr, ptr, i32, i32, i32, i32, i32, ptr, ptr, ptr, ptr, i32, i32, [8 x i64], i32, i32, i32, i32, i32, i32, i32, ptr, ptr, i32, i32, i32, i32, i32, i32, i32, i32, i32, i32, ptr, ptr, i32, i32, ptr, ptr, ptr, ptr, i32, i32, i64, i32, i32, i64, ptr, i64, ptr, i32, ptr, i32 }
%struct.AVRational = type { i32, i32 }
%struct.AVChannelLayout = type { i32, i32, %union.anon.2, ptr }
%union.anon.2 = type { i64 }

@.str.38 = private unnamed_addr constant [30 x i8] c"Assertion %s failed at %s:%d\0A\00", align 1
@.str.144 = private unnamed_addr constant [24 x i8] c"s->buf_ptr < s->buf_end\00", align 1
@.str.145 = private unnamed_addr constant [22 x i8] c"libavcodec/put_bits.h\00", align 1

; Function Attrs: inlinehint nounwind uwtable
define internal i32 @put_bits_count(ptr noundef %0) #3 {
  %2 = alloca ptr, align 8
  store ptr %0, ptr %2, align 8, !tbaa !64
  %3 = load ptr, ptr %2, align 8, !tbaa !64
  %4 = getelementptr inbounds nuw %struct.PutBitContext, ptr %3, i32 0, i32 3
  %5 = load ptr, ptr %4, align 8, !tbaa !413
  %6 = load ptr, ptr %2, align 8, !tbaa !64
  %7 = getelementptr inbounds nuw %struct.PutBitContext, ptr %6, i32 0, i32 2
  %8 = load ptr, ptr %7, align 8, !tbaa !414
  %9 = ptrtoint ptr %5 to i64
  %10 = ptrtoint ptr %8 to i64
  %11 = sub i64 %9, %10
  %12 = mul nsw i64 %11, 8
  %13 = add nsw i64 %12, 32
  %14 = load ptr, ptr %2, align 8, !tbaa !64
  %15 = getelementptr inbounds nuw %struct.PutBitContext, ptr %14, i32 0, i32 1
  %16 = load i32, ptr %15, align 4, !tbaa !415
  %17 = sext i32 %16 to i64
  %18 = sub nsw i64 %13, %17
  %19 = trunc i64 %18 to i32
  ret i32 %19
}

; Function Attrs: inlinehint nounwind uwtable
define internal i32 @get_bits_diff(ptr noundef %0) #3 {
  %2 = alloca ptr, align 8
  %3 = alloca i32, align 4
  %4 = alloca i32, align 4
  store ptr %0, ptr %2, align 8, !tbaa !4
  call void @llvm.lifetime.start.p0(i64 4, ptr %3) #14
  %5 = load ptr, ptr %2, align 8, !tbaa !4
  %6 = getelementptr inbounds nuw %struct.MPVEncContext, ptr %5, i32 0, i32 1
  %7 = call i32 @put_bits_count(ptr noundef %6)
  store i32 %7, ptr %3, align 4, !tbaa !13
  call void @llvm.lifetime.start.p0(i64 4, ptr %4) #14
  %8 = load ptr, ptr %2, align 8, !tbaa !4
  %9 = getelementptr inbounds nuw %struct.MPVEncContext, ptr %8, i32 0, i32 63
  %10 = load i32, ptr %9, align 4, !tbaa !405
  store i32 %10, ptr %4, align 4, !tbaa !13
  %11 = load i32, ptr %3, align 4, !tbaa !13
  %12 = load ptr, ptr %2, align 8, !tbaa !4
  %13 = getelementptr inbounds nuw %struct.MPVEncContext, ptr %12, i32 0, i32 63
  store i32 %11, ptr %13, align 4, !tbaa !405
  %14 = load i32, ptr %3, align 4, !tbaa !13
  %15 = load i32, ptr %4, align 4, !tbaa !13
  %16 = sub nsw i32 %14, %15
  call void @llvm.lifetime.end.p0(i64 4, ptr %4) #14
  call void @llvm.lifetime.end.p0(i64 4, ptr %3) #14
  ret i32 %16
}

; Function Attrs: inlinehint nounwind uwtable
define internal void @flush_put_bits(ptr noundef %0) #3 {
  %2 = alloca ptr, align 8
  store ptr %0, ptr %2, align 8, !tbaa !64
  %3 = load ptr, ptr %2, align 8, !tbaa !64
  %4 = getelementptr inbounds nuw %struct.PutBitContext, ptr %3, i32 0, i32 1
  %5 = load i32, ptr %4, align 4, !tbaa !415
  %6 = icmp slt i32 %5, 32
  br i1 %6, label %7, label %15

7:                                                ; preds = %1
  %8 = load ptr, ptr %2, align 8, !tbaa !64
  %9 = getelementptr inbounds nuw %struct.PutBitContext, ptr %8, i32 0, i32 1
  %10 = load i32, ptr %9, align 4, !tbaa !415
  %11 = load ptr, ptr %2, align 8, !tbaa !64
  %12 = getelementptr inbounds nuw %struct.PutBitContext, ptr %11, i32 0, i32 0
  %13 = load i32, ptr %12, align 8, !tbaa !416
  %14 = shl i32 %13, %10
  store i32 %14, ptr %12, align 8, !tbaa !416
  br label %15

15:                                               ; preds = %7, %1
  br label %16

16:                                               ; preds = %32, %15
  %17 = load ptr, ptr %2, align 8, !tbaa !64
  %18 = getelementptr inbounds nuw %struct.PutBitContext, ptr %17, i32 0, i32 1
  %19 = load i32, ptr %18, align 4, !tbaa !415
  %20 = icmp slt i32 %19, 32
  br i1 %20, label %21, label %50

21:                                               ; preds = %16
  br label %22

22:                                               ; preds = %21
  %23 = load ptr, ptr %2, align 8, !tbaa !64
  %24 = getelementptr inbounds nuw %struct.PutBitContext, ptr %23, i32 0, i32 3
  %25 = load ptr, ptr %24, align 8, !tbaa !413
  %26 = load ptr, ptr %2, align 8, !tbaa !64
  %27 = getelementptr inbounds nuw %struct.PutBitContext, ptr %26, i32 0, i32 4
  %28 = load ptr, ptr %27, align 8, !tbaa !417
  %29 = icmp ult ptr %25, %28
  br i1 %29, label %31, label %30

30:                                               ; preds = %22
  call void (ptr, i32, ptr, ...) @av_log(ptr noundef null, i32 noundef 0, ptr noundef @.str.38, ptr noundef @.str.144, ptr noundef @.str.145, i32 noundef 150)
  call void @abort() #17
  unreachable

31:                                               ; preds = %22
  br label %32

32:                                               ; preds = %31
  %33 = load ptr, ptr %2, align 8, !tbaa !64
  %34 = getelementptr inbounds nuw %struct.PutBitContext, ptr %33, i32 0, i32 0
  %35 = load i32, ptr %34, align 8, !tbaa !416
  %36 = lshr i32 %35, 24
  %37 = trunc i32 %36 to i8
  %38 = load ptr, ptr %2, align 8, !tbaa !64
  %39 = getelementptr inbounds nuw %struct.PutBitContext, ptr %38, i32 0, i32 3
  %40 = load ptr, ptr %39, align 8, !tbaa !413
  %41 = getelementptr inbounds nuw i8, ptr %40, i32 1
  store ptr %41, ptr %39, align 8, !tbaa !413
  store i8 %37, ptr %40, align 1, !tbaa !52
  %42 = load ptr, ptr %2, align 8, !tbaa !64
  %43 = getelementptr inbounds nuw %struct.PutBitContext, ptr %42, i32 0, i32 0
  %44 = load i32, ptr %43, align 8, !tbaa !416
  %45 = shl i32 %44, 8
  store i32 %45, ptr %43, align 8, !tbaa !416
  %46 = load ptr, ptr %2, align 8, !tbaa !64
  %47 = getelementptr inbounds nuw %struct.PutBitContext, ptr %46, i32 0, i32 1
  %48 = load i32, ptr %47, align 4, !tbaa !415
  %49 = add nsw i32 %48, 8
  store i32 %49, ptr %47, align 4, !tbaa !415
  br label %16, !llvm.loop !418

50:                                               ; preds = %16
  %51 = load ptr, ptr %2, align 8, !tbaa !64
  %52 = getelementptr inbounds nuw %struct.PutBitContext, ptr %51, i32 0, i32 1
  store i32 32, ptr %52, align 4, !tbaa !415
  %53 = load ptr, ptr %2, align 8, !tbaa !64
  %54 = getelementptr inbounds nuw %struct.PutBitContext, ptr %53, i32 0, i32 0
  store i32 0, ptr %54, align 8, !tbaa !416
  ret void
}

; Function Attrs: nounwind uwtable
define internal void @write_slice_end(ptr noundef %0) #1 {
  %2 = alloca ptr, align 8
  store ptr %0, ptr %2, align 8, !tbaa !4
  %3 = load ptr, ptr %2, align 8, !tbaa !4
  %4 = getelementptr inbounds nuw %struct.MPVEncContext, ptr %3, i32 0, i32 0
  %5 = getelementptr inbounds nuw %struct.MpegEncContext, ptr %4, i32 0, i32 19
  %6 = load i32, ptr %5, align 4, !tbaa !154
  %7 = icmp eq i32 %6, 12
  br i1 %7, label %8, label %19

8:                                                ; preds = %1
  %9 = load ptr, ptr %2, align 8, !tbaa !4
  %10 = getelementptr inbounds nuw %struct.MPVEncContext, ptr %9, i32 0, i32 0
  %11 = getelementptr inbounds nuw %struct.MpegEncContext, ptr %10, i32 0, i32 121
  %12 = load i32, ptr %11, align 4, !tbaa !473
  %13 = icmp ne i32 %12, 0
  br i1 %13, label %14, label %16

14:                                               ; preds = %8
  %15 = load ptr, ptr %2, align 8, !tbaa !4
  call void @ff_mpeg4_merge_partitions(ptr noundef %15)
  br label %16

16:                                               ; preds = %14, %8
  %17 = load ptr, ptr %2, align 8, !tbaa !4
  %18 = getelementptr inbounds nuw %struct.MPVEncContext, ptr %17, i32 0, i32 1
  call void @ff_mpeg4_stuffing(ptr noundef %18)
  br label %38

19:                                               ; preds = %1
  %20 = load ptr, ptr %2, align 8, !tbaa !4
  %21 = getelementptr inbounds nuw %struct.MPVEncContext, ptr %20, i32 0, i32 0
  %22 = getelementptr inbounds nuw %struct.MpegEncContext, ptr %21, i32 0, i32 14
  %23 = load i32, ptr %22, align 8, !tbaa !105
  %24 = icmp eq i32 %23, 3
  br i1 %24, label %25, label %28

25:                                               ; preds = %19
  %26 = load ptr, ptr %2, align 8, !tbaa !4
  %27 = call i32 @ff_mjpeg_encode_stuffing(ptr noundef %26)
  br label %37

28:                                               ; preds = %19
  %29 = load ptr, ptr %2, align 8, !tbaa !4
  %30 = getelementptr inbounds nuw %struct.MPVEncContext, ptr %29, i32 0, i32 0
  %31 = getelementptr inbounds nuw %struct.MpegEncContext, ptr %30, i32 0, i32 14
  %32 = load i32, ptr %31, align 8, !tbaa !105
  %33 = icmp eq i32 %32, 4
  br i1 %33, label %34, label %36

34:                                               ; preds = %28
  %35 = load ptr, ptr %2, align 8, !tbaa !4
  call void @ff_speedhq_end_slice(ptr noundef %35)
  br label %36

36:                                               ; preds = %34, %28
  br label %37

37:                                               ; preds = %36, %25
  br label %38

38:                                               ; preds = %37, %16
  %39 = load ptr, ptr %2, align 8, !tbaa !4
  %40 = getelementptr inbounds nuw %struct.MPVEncContext, ptr %39, i32 0, i32 1
  call void @flush_put_bits(ptr noundef %40)
  %41 = load ptr, ptr %2, align 8, !tbaa !4
  %42 = getelementptr inbounds nuw %struct.MPVEncContext, ptr %41, i32 0, i32 0
  %43 = getelementptr inbounds nuw %struct.MpegEncContext, ptr %42, i32 0, i32 10
  %44 = load ptr, ptr %43, align 8, !tbaa !63
  %45 = getelementptr inbounds nuw %struct.AVCodecContext, ptr %44, i32 0, i32 10
  %46 = load i32, ptr %45, align 8, !tbaa !156
  %47 = and i32 %46, 512
  %48 = icmp ne i32 %47, 0
  br i1 %48, label %49, label %62

49:                                               ; preds = %38
  %50 = load ptr, ptr %2, align 8, !tbaa !4
  %51 = getelementptr inbounds nuw %struct.MPVEncContext, ptr %50, i32 0, i32 0
  %52 = getelementptr inbounds nuw %struct.MpegEncContext, ptr %51, i32 0, i32 121
  %53 = load i32, ptr %52, align 4, !tbaa !473
  %54 = icmp ne i32 %53, 0
  br i1 %54, label %62, label %55

55:                                               ; preds = %49
  %56 = load ptr, ptr %2, align 8, !tbaa !4
  %57 = call i32 @get_bits_diff(ptr noundef %56)
  %58 = load ptr, ptr %2, align 8, !tbaa !4
  %59 = getelementptr inbounds nuw %struct.MPVEncContext, ptr %58, i32 0, i32 62
  %60 = load i32, ptr %59, align 8, !tbaa !476
  %61 = add nsw i32 %60, %57
  store i32 %61, ptr %59, align 8, !tbaa !476
  br label %62

62:                                               ; preds = %55, %49, %38
  ret void
}