; Function Attrs: nounwind uwtable
define internal fastcc void @write_slice_end(ptr noundef %0) unnamed_addr #1 {
  %2 = getelementptr inbounds nuw i8, ptr %0, i64 516
  %3 = load i32, ptr %2, align 4, !tbaa !139
  %4 = icmp eq i32 %3, 12
  br i1 %4, label %5, label %11

5:                                                ; preds = %1
  %6 = getelementptr inbounds nuw i8, ptr %0, i64 4100
  %7 = load i32, ptr %6, align 4, !tbaa !383
  %.not = icmp eq i32 %7, 0
  br i1 %.not, label %9, label %8

8:                                                ; preds = %5
  tail call void @ff_mpeg4_merge_partitions(ptr noundef nonnull %0) #16
  br label %9

9:                                                ; preds = %8, %5
  %10 = getelementptr inbounds nuw i8, ptr %0, i64 4808
  tail call void @ff_mpeg4_stuffing(ptr noundef nonnull %10) #16
  br label %17

11:                                               ; preds = %1
  %12 = getelementptr inbounds nuw i8, ptr %0, i64 496
  %13 = load i32, ptr %12, align 8, !tbaa !96
  switch i32 %13, label %17 [
    i32 3, label %14
    i32 4, label %16
  ]

14:                                               ; preds = %11
  %15 = tail call i32 @ff_mjpeg_encode_stuffing(ptr noundef nonnull %0) #16
  br label %17

16:                                               ; preds = %11
  tail call void @ff_speedhq_end_slice(ptr noundef nonnull %0) #16
  br label %17

17:                                               ; preds = %11, %14, %16, %9
  %18 = getelementptr inbounds nuw i8, ptr %0, i64 4808
  %19 = getelementptr inbounds nuw i8, ptr %0, i64 4812
  %20 = load i32, ptr %19, align 4, !tbaa !58
  %21 = icmp slt i32 %20, 32
  br i1 %21, label %.lr.ph.i, label %flush_put_bits.exit

.lr.ph.i:                                         ; preds = %17
  %22 = load i32, ptr %18, align 8, !tbaa !57
  %23 = shl i32 %22, %20
  store i32 %23, ptr %18, align 8, !tbaa !57
  %24 = getelementptr inbounds nuw i8, ptr %0, i64 4824
  %25 = getelementptr inbounds nuw i8, ptr %0, i64 4832
  br label %26

26:                                               ; preds = %32, %.lr.ph.i
  %27 = phi i32 [ %37, %32 ], [ %23, %.lr.ph.i ]
  %28 = load ptr, ptr %24, align 8, !tbaa !60
  %29 = load ptr, ptr %25, align 8, !tbaa !59
  %30 = icmp ult ptr %28, %29
  br i1 %30, label %32, label %31

31:                                               ; preds = %26
  tail call void (ptr, i32, ptr, ...) @av_log(ptr noundef null, i32 noundef 0, ptr noundef nonnull @.str.38, ptr noundef nonnull @.str.144, ptr noundef nonnull @.str.145, i32 noundef 150) #16
  tail call void @abort() #19
  unreachable

32:                                               ; preds = %26
  %33 = lshr i32 %27, 24
  %34 = trunc nuw i32 %33 to i8
  %35 = getelementptr inbounds nuw i8, ptr %28, i64 1
  store ptr %35, ptr %24, align 8, !tbaa !60
  store i8 %34, ptr %28, align 1, !tbaa !46
  %36 = load i32, ptr %18, align 8, !tbaa !57
  %37 = shl i32 %36, 8
  store i32 %37, ptr %18, align 8, !tbaa !57
  %38 = load i32, ptr %19, align 4, !tbaa !58
  %39 = add nsw i32 %38, 8
  store i32 %39, ptr %19, align 4, !tbaa !58
  %40 = icmp slt i32 %38, 24
  br i1 %40, label %26, label %flush_put_bits.exit, !llvm.loop !393

flush_put_bits.exit:                              ; preds = %32, %17
  store i32 32, ptr %19, align 4, !tbaa !58
  store i32 0, ptr %18, align 8, !tbaa !57
  %41 = getelementptr inbounds nuw i8, ptr %0, i64 472
  %42 = load ptr, ptr %41, align 8, !tbaa !56
  %43 = getelementptr inbounds nuw i8, ptr %42, i64 64
  %44 = load i32, ptr %43, align 8, !tbaa !141
  %45 = and i32 %44, 512
  %.not13 = icmp eq i32 %45, 0
  br i1 %.not13, label %64, label %46

46:                                               ; preds = %flush_put_bits.exit
  %47 = getelementptr inbounds nuw i8, ptr %0, i64 4100
  %48 = load i32, ptr %47, align 4, !tbaa !383
  %.not14 = icmp eq i32 %48, 0
  br i1 %.not14, label %49, label %64

49:                                               ; preds = %46
  %50 = getelementptr inbounds nuw i8, ptr %0, i64 4824
  %51 = load ptr, ptr %50, align 8, !tbaa !60
  %52 = getelementptr inbounds nuw i8, ptr %0, i64 4816
  %53 = load ptr, ptr %52, align 8, !tbaa !355
  %54 = ptrtoint ptr %51 to i64
  %55 = ptrtoint ptr %53 to i64
  %56 = sub i64 %54, %55
  %.tr.i.i = trunc i64 %56 to i32
  %57 = shl i32 %.tr.i.i, 3
  %58 = getelementptr inbounds nuw i8, ptr %0, i64 6756
  %59 = load i32, ptr %58, align 4, !tbaa !380
  store i32 %57, ptr %58, align 4, !tbaa !380
  %60 = getelementptr inbounds nuw i8, ptr %0, i64 6752
  %61 = load i32, ptr %60, align 8, !tbaa !391
  %62 = sub i32 %61, %59
  %63 = add i32 %62, %57
  store i32 %63, ptr %60, align 8, !tbaa !391
  br label %64

64:                                               ; preds = %49, %46, %flush_put_bits.exit
  ret void
}